; Function Attrs: mustprogress uwtable
define hidden noundef i32 @_ZNK2cv10ExifReader14getStartOffsetEv(ptr noundef nonnull readonly align 8 captures(none) dereferenceable(76) %0) local_unnamed_addr #5 align 2 {
  %2 = getelementptr inbounds nuw i8, ptr %0, i64 8
  %3 = load ptr, ptr %2, align 8, !tbaa !54
  %4 = load ptr, ptr %0, align 8, !tbaa !46
  %5 = ptrtoint ptr %3 to i64
  %6 = ptrtoint ptr %4 to i64
  %7 = sub i64 %5, %6
  %.not.i = icmp ugt i64 %7, 7
  br i1 %.not.i, label %10, label %8

8:                                                ; preds = %1
  %9 = tail call ptr @__cxa_allocate_exception(i64 1) #25
  tail call void @__cxa_throw(ptr %9, ptr nonnull @_ZTIN12_GLOBAL__N_116ExifParsingErrorE, ptr null) #26
  unreachable

10:                                               ; preds = %1
  %11 = getelementptr inbounds nuw i8, ptr %0, i64 72
  %12 = load i32, ptr %11, align 8, !tbaa !34
  %13 = icmp eq i32 %12, 73
  %14 = getelementptr i8, ptr %4, i64 4
  %15 = load i8, ptr %14, align 1, !tbaa !12
  %16 = zext i8 %15 to i32
  br i1 %13, label %17, label %28

17:                                               ; preds = %10
  %18 = getelementptr i8, ptr %4, i64 5
  %19 = load i16, ptr %18, align 1
  %20 = zext i16 %19 to i32
  %21 = shl nuw nsw i32 %20, 8
  %22 = getelementptr inbounds nuw i8, ptr %4, i64 7
  %23 = load i8, ptr %22, align 1, !tbaa !12
  %24 = zext i8 %23 to i32
  %25 = shl nuw i32 %24, 24
  %26 = or disjoint i32 %21, %25
  %27 = or disjoint i32 %26, %16
  br label %_ZNK2cv10ExifReader6getU32Em.exit

28:                                               ; preds = %10
  %29 = shl nuw i32 %16, 24
  %30 = getelementptr i8, ptr %4, i64 5
  %31 = load i8, ptr %30, align 1, !tbaa !12
  %32 = zext i8 %31 to i32
  %33 = shl nuw nsw i32 %32, 16
  %34 = or disjoint i32 %33, %29
  %35 = getelementptr i8, ptr %4, i64 6
  %36 = load i8, ptr %35, align 1, !tbaa !12
  %37 = zext i8 %36 to i32
  %38 = shl nuw nsw i32 %37, 8
  %39 = or disjoint i32 %34, %38
  %40 = getelementptr inbounds nuw i8, ptr %4, i64 7
  %41 = load i8, ptr %40, align 1, !tbaa !12
  %42 = zext i8 %41 to i32
  %43 = or disjoint i32 %39, %42
  br label %_ZNK2cv10ExifReader6getU32Em.exit

_ZNK2cv10ExifReader6getU32Em.exit:                ; preds = %17, %28
  %.0.i = phi i32 [ %27, %17 ], [ %43, %28 ]
  ret i32 %.0.i
}